Certificate:
    Data:
        Version: 3 (0x2)
        Serial Number: 1 (0x1)
    Signature Algorithm: sha1WithRSAEncryption
        Issuer: C=US, ST=Unset, L=Unset, O=Unset, CN=www.example.com
        Validity
            Not Before: Jan 31 05:43:58 2017 GMT
            Not After : Jan 29 05:43:58 2027 GMT
        Subject: C=US, ST=Unset, O=Unset, CN=www.example.com
        Subject Public Key Info:
            Public Key Algorithm: rsaEncryption
                Public-Key: (2048 bit)
                Modulus:
                    00:c7:20:0e:17:6d:00:dc:74:7d:a6:8a:c5:eb:46:
                    83:89:51:3a:2e:6c:d7:f4:00:4a:ef:c7:a0:e6:fb:
                    c3:d3:84:6a:13:19:cb:aa:83:84:81:49:71:47:79:
                    00:ff:66:ea:d7:60:34:2c:ef:bc:b0:5d:25:2b:ae:
                    bb:c6:4b:70:8a:b9:09:82:f7:d7:1d:f3:5b:ed:0b:
                    a4:13:1e:23:c1:64:08:0a:f0:8d:61:3b:b3:20:1b:
                    e5:d9:b0:2d:06:2d:a9:24:af:b7:9a:41:2f:af:74:
                    bb:7b:ba:b1:29:82:4a:b4:b4:f6:18:43:7e:b6:83:
                    4e:2e:3c:83:c1:d7:9f:cb:42:f7:8a:9b:32:56:4e:
                    8b:d0:d4:ea:63:0a:3f:e5:93:67:1e:d3:21:22:8d:
                    21:32:2f:83:c2:a9:3a:3d:ca:65:de:e2:03:fe:fc:
                    47:f0:64:57:ae:22:a2:b5:5a:45:61:fa:86:3f:a8:
                    b8:34:85:f9:1b:1b:78:9f:4d:7b:72:50:c7:10:d0:
                    1b:ce:bf:6b:be:30:f4:7d:3b:ca:91:e7:ea:8b:69:
                    a5:f6:01:ba:df:06:cd:37:9b:04:73:12:34:d7:be:
                    51:6a:98:21:c5:1d:7c:33:4c:29:fa:73:85:32:12:
                    97:55:26:67:9e:dd:96:ed:61:4e:9e:c8:9c:f7:54:
                    ae:3b
                Exponent: 65537 (0x10001)
        X509v3 extensions:
            X509v3 Basic Constraints: 
                CA:FALSE
            X509v3 Subject Key Identifier: 
                DB:68:CC:7B:38:B2:FF:6D:FC:01:59:45:E6:C3:F8:06:84:1E:70:0F
            X509v3 Authority Key Identifier: 
                keyid:0C:AC:B5:50:83:31:81:01:8B:2E:E1:B6:0E:23:D6:0B:2A:7F:F3:7F

    Signature Algorithm: sha1WithRSAEncryption
         65:09:6e:0d:48:54:d8:d7:d7:ba:d3:32:e3:e0:10:04:05:fe:
         56:e9:70:35:75:04:30:7d:77:e2:ae:db:c7:69:61:93:f6:61:
         47:a5:9a:0e:e1:43:c6:20:e0:8c:cb:9d:27:13:31:0c:94:44:
         24:a0:98:1a:a4:d3:b3:ef:36:fd:4a:ff:fa:b6:79:c3:37:4d:
         d6:88:f5:7d:f0:cb:18:5f:c4:7a:0f:f7:9a:31:1f:e5:63:c0:
         f5:8b:3a:eb:01:37:37:25:b0:d2:52:60:dd:57:3c:f4:5f:4d:
         e2:b0:b7:a5:1c:17:c4:96:b5:82:c1:53:bc:67:18:17:38:07:
         54:41:a6:7f:09:be:bb:e9:48:2b:9c:76:ba:39:36:7f:66:4b:
         0c:ab:87:bd:55:df:3b:08:01:e5:a6:d9:31:10:f5:aa:fe:27:
         5c:1e:33:d1:a1:09:de:90:49:13:07:da:e8:93:e0:ca:48:0b:
         4c:41:74:90:f6:c5:17:97:40:7f:dc:ea:7e:24:ce:48:99:dd:
         12:7e:17:01:15:c8:47:b1:cc:7d:ff:26:28:38:18:8b:c1:4f:
         d4:f9:b1:44:1b:0c:45:e7:47:de:82:bc:20:f2:93:d0:21:f0:
         6c:65:41:64:6b:45:b3:21:c6:ba:0c:38:ee:33:55:66:f6:79:
         89:4d:af:fd
-----BEGIN CERTIFICATE-----
MIIDZjCCAk6gAwIBAgIBATANBgkqhkiG9w0BAQUFADBXMQswCQYDVQQGEwJVUzEO
MAwGA1UECAwFVW5zZXQxDjAMBgNVBAcMBVVuc2V0MQ4wDAYDVQQKDAVVbnNldDEY
MBYGA1UEAwwPd3d3LmV4YW1wbGUuY29tMB4XDTE3MDEzMTA1NDM1OFoXDTI3MDEy
OTA1NDM1OFowRzELMAkGA1UEBhMCVVMxDjAMBgNVBAgMBVVuc2V0MQ4wDAYDVQQK
DAVVbnNldDEYMBYGA1UEAwwPd3d3LmV4YW1wbGUuY29tMIIBIjANBgkqhkiG9w0B
AQEFAAOCAQ8AMIIBCgKCAQEAxyAOF20A3HR9porF60aDiVE6LmzX9ABK78eg5vvD
04RqExnLqoOEgUlxR3kA/2bq12A0LO+8sF0lK667xktwirkJgvfXHfNb7QukEx4j
wWQICvCNYTuzIBvl2bAtBi2pJK+3mkEvr3S7e7qxKYJKtLT2GEN+toNOLjyDwdef
y0L3ipsyVk6L0NTqYwo/5ZNnHtMhIo0hMi+Dwqk6Pcpl3uID/vxH8GRXriKitVpF
YfqGP6i4NIX5Gxt4n017clDHENAbzr9rvjD0fTvKkefqi2ml9gG63wbNN5sEcxI0
175RapghxR18M0wp+nOFMhKXVSZnnt2W7WFOnsic91SuOwIDAQABo00wSzAJBgNV
HRMEAjAAMB0GA1UdDgQWBBTbaMx7OLL/bfwBWUXmw/gGhB5wDzAfBgNVHSMEGDAW
gBQMrLVQgzGBAYsu4bYOI9YLKn/zfzANBgkqhkiG9w0BAQUFAAOCAQEAZQluDUhU
2NfXutMy4+AQBAX+VulwNXUEMH134q7bx2lhk/ZhR6WaDuFDxiDgjMudJxMxDJRE
JKCYGqTTs+82/Ur/+rZ5wzdN1oj1ffDLGF/Eeg/3mjEf5WPA9Ys66wE3NyWw0lJg
3Vc89F9N4rC3pRwXxJa1gsFTvGcYFzgHVEGmfwm+u+lIK5x2ujk2f2ZLDKuHvVXf
OwgB5abZMRD1qv4nXB4z0aEJ3pBJEwfa6JPgykgLTEF0kPbFF5dAf9zqfiTOSJnd
En4XARXIR7HMff8mKDgYi8FP1PmxRBsMRedH3oK8IPKT0CHwbGVBZGtFsyHGugw4
7jNVZvZ5iU2v/Q==
-----END CERTIFICATE-----
